; Function Attrs: mustprogress uwtable
define void @_ZN3nix14SourceAccessor8readFileERKNS_9CanonPathERNS_4SinkESt8functionIFvmEE(ptr noundef nonnull align 8 dereferenceable(80) %0, ptr noundef nonnull align 8 dereferenceable(32) %1, ptr noundef nonnull align 8 dereferenceable(8) %2, ptr noundef %3) unnamed_addr #4 align 2 personality ptr @__gxx_personality_v0 {
  %5 = alloca i64, align 8
  %6 = alloca %"class.std::__cxx11::basic_string", align 8
  %7 = load ptr, ptr %0, align 8
  %8 = getelementptr inbounds i8, ptr %7, i64 16
  %9 = load ptr, ptr %8, align 8
  call void %9(ptr dead_on_unwind nonnull writable sret(%"class.std::__cxx11::basic_string") align 8 %6, ptr noundef nonnull align 8 dereferenceable(80) %0, ptr noundef nonnull align 8 dereferenceable(32) %1)
  %10 = getelementptr inbounds i8, ptr %6, i64 8
  %11 = load i64, ptr %10, align 8
  call void @llvm.lifetime.start.p0(i64 8, ptr nonnull %5)
  store i64 %11, ptr %5, align 8
  %12 = getelementptr inbounds i8, ptr %3, i64 16
  %13 = load ptr, ptr %12, align 8
  %.not.i.i = icmp eq ptr %13, null
  br i1 %.not.i.i, label %14, label %15

14:                                               ; preds = %4
  invoke void @_ZSt25__throw_bad_function_callv() #24
          to label %.noexc unwind label %30

.noexc:                                           ; preds = %14
  unreachable

15:                                               ; preds = %4
  %16 = getelementptr inbounds i8, ptr %3, i64 24
  %17 = load ptr, ptr %16, align 8
  invoke void %17(ptr noundef nonnull align 8 dereferenceable(16) %3, ptr noundef nonnull align 8 dereferenceable(8) %5)
          to label %18 unwind label %30

18:                                               ; preds = %15
  call void @llvm.lifetime.end.p0(i64 8, ptr nonnull %5)
  %19 = load ptr, ptr %6, align 8
  %20 = load i64, ptr %10, align 8
  %21 = load ptr, ptr %2, align 8
  %22 = getelementptr inbounds i8, ptr %21, i64 16
  %23 = load ptr, ptr %22, align 8
  invoke void %23(ptr noundef nonnull align 8 dereferenceable(8) %2, i64 %20, ptr %19)
          to label %24 unwind label %30

24:                                               ; preds = %18
  %25 = load ptr, ptr %6, align 8
  %26 = getelementptr inbounds i8, ptr %6, i64 16
  %27 = icmp eq ptr %25, %26
  br i1 %27, label %_ZNKSt7__cxx1112basic_stringIcSt11char_traitsIcESaIcEE11_M_is_localEv.exit.thread.i.i, label %_ZNKSt7__cxx1112basic_stringIcSt11char_traitsIcESaIcEE11_M_is_localEv.exit.i.i

_ZNKSt7__cxx1112basic_stringIcSt11char_traitsIcESaIcEE11_M_is_localEv.exit.thread.i.i: ; preds = %24
  %28 = load i64, ptr %10, align 8
  %29 = icmp ult i64 %28, 16
  call void @llvm.assume(i1 %29)
  br label %_ZNSt7__cxx1112basic_stringIcSt11char_traitsIcESaIcEED2Ev.exit

_ZNKSt7__cxx1112basic_stringIcSt11char_traitsIcESaIcEE11_M_is_localEv.exit.i.i: ; preds = %24
  call void @_ZdlPv(ptr noundef %25) #27
  br label %_ZNSt7__cxx1112basic_stringIcSt11char_traitsIcESaIcEED2Ev.exit

_ZNSt7__cxx1112basic_stringIcSt11char_traitsIcESaIcEED2Ev.exit: ; preds = %_ZNKSt7__cxx1112basic_stringIcSt11char_traitsIcESaIcEE11_M_is_localEv.exit.thread.i.i, %_ZNKSt7__cxx1112basic_stringIcSt11char_traitsIcESaIcEE11_M_is_localEv.exit.i.i
  call void @_ZNSaIcED2Ev(ptr noundef nonnull align 1 dereferenceable(1) %6) #23
  ret void

30:                                               ; preds = %15, %14, %18
  %31 = landingpad { ptr, i32 }
          cleanup
  call void @_ZNSt7__cxx1112basic_stringIcSt11char_traitsIcESaIcEED2Ev(ptr noundef nonnull align 8 dereferenceable(32) %6) #23
  resume { ptr, i32 } %31
}